target datalayout = "e-m:e-p270:32:32-p271:32:32-p272:64:64-i64:64-i128:128-f80:128-n8:16:32:64-S128"
target triple = "x86_64-pc-linux-gnu"

%struct.Abc_ManTime_t_ = type { %struct.Abc_Time_t_, %struct.Abc_Time_t_, ptr, ptr, %struct.Abc_Time_t_, %struct.Abc_Time_t_, ptr, ptr }
%struct.Abc_Time_t_ = type { float, float }
%struct.Vec_Ptr_t_ = type { i32, i32, ptr }

; Function Attrs: nounwind uwtable
define internal void @Vec_PtrFree(ptr noundef %0) #0 {
  %2 = alloca ptr, align 8
  store ptr %0, ptr %2, align 8
  %3 = load ptr, ptr %2, align 8
  %4 = getelementptr inbounds %struct.Vec_Ptr_t_, ptr %3, i32 0, i32 2
  %5 = load ptr, ptr %4, align 8
  %6 = icmp ne ptr %5, null
  br i1 %6, label %7, label %13

7:                                                ; preds = %1
  %8 = load ptr, ptr %2, align 8
  %9 = getelementptr inbounds %struct.Vec_Ptr_t_, ptr %8, i32 0, i32 2
  %10 = load ptr, ptr %9, align 8
  call void @free(ptr noundef %10) #13
  %11 = load ptr, ptr %2, align 8
  %12 = getelementptr inbounds %struct.Vec_Ptr_t_, ptr %11, i32 0, i32 2
  store ptr null, ptr %12, align 8
  br label %14

13:                                               ; preds = %1
  br label %14

14:                                               ; preds = %13, %7
  %15 = load ptr, ptr %2, align 8
  %16 = icmp ne ptr %15, null
  br i1 %16, label %17, label %19

17:                                               ; preds = %14
  %18 = load ptr, ptr %2, align 8
  call void @free(ptr noundef %18) #13
  store ptr null, ptr %2, align 8
  br label %20

19:                                               ; preds = %14
  br label %20

20:                                               ; preds = %19, %17
  ret void
}

; Function Attrs: nounwind uwtable
define internal i32 @Vec_PtrSize(ptr noundef %0) #0 {
  %2 = alloca ptr, align 8
  store ptr %0, ptr %2, align 8
  %3 = load ptr, ptr %2, align 8
  %4 = getelementptr inbounds %struct.Vec_Ptr_t_, ptr %3, i32 0, i32 1
  %5 = load i32, ptr %4, align 4
  ret i32 %5
}

; Function Attrs: nounwind uwtable
define void @Abc_ManTimeStop(ptr noundef %0) #0 {
  %2 = alloca ptr, align 8
  store ptr %0, ptr %2, align 8
  %3 = load ptr, ptr %2, align 8
  %4 = getelementptr inbounds %struct.Abc_ManTime_t_, ptr %3, i32 0, i32 6
  %5 = load ptr, ptr %4, align 8
  %6 = icmp ne ptr %5, null
  br i1 %6, label %7, label %20

7:                                                ; preds = %1
  %8 = load ptr, ptr %2, align 8
  %9 = getelementptr inbounds %struct.Abc_ManTime_t_, ptr %8, i32 0, i32 6
  %10 = load ptr, ptr %9, align 8
  %11 = icmp ne ptr %10, null
  br i1 %11, label %12, label %18

12:                                               ; preds = %7
  %13 = load ptr, ptr %2, align 8
  %14 = getelementptr inbounds %struct.Abc_ManTime_t_, ptr %13, i32 0, i32 6
  %15 = load ptr, ptr %14, align 8
  call void @free(ptr noundef %15) #13
  %16 = load ptr, ptr %2, align 8
  %17 = getelementptr inbounds %struct.Abc_ManTime_t_, ptr %16, i32 0, i32 6
  store ptr null, ptr %17, align 8
  br label %19

18:                                               ; preds = %7
  br label %19

19:                                               ; preds = %18, %12
  br label %20

20:                                               ; preds = %19, %1
  %21 = load ptr, ptr %2, align 8
  %22 = getelementptr inbounds %struct.Abc_ManTime_t_, ptr %21, i32 0, i32 7
  %23 = load ptr, ptr %22, align 8
  %24 = icmp ne ptr %23, null
  br i1 %24, label %25, label %38

25:                                               ; preds = %20
  %26 = load ptr, ptr %2, align 8
  %27 = getelementptr inbounds %struct.Abc_ManTime_t_, ptr %26, i32 0, i32 7
  %28 = load ptr, ptr %27, align 8
  %29 = icmp ne ptr %28, null
  br i1 %29, label %30, label %36

30:                                               ; preds = %25
  %31 = load ptr, ptr %2, align 8
  %32 = getelementptr inbounds %struct.Abc_ManTime_t_, ptr %31, i32 0, i32 7
  %33 = load ptr, ptr %32, align 8
  call void @free(ptr noundef %33) #13
  %34 = load ptr, ptr %2, align 8
  %35 = getelementptr inbounds %struct.Abc_ManTime_t_, ptr %34, i32 0, i32 7
  store ptr null, ptr %35, align 8
  br label %37

36:                                               ; preds = %25
  br label %37

37:                                               ; preds = %36, %30
  br label %38

38:                                               ; preds = %37, %20
  %39 = load ptr, ptr %2, align 8
  %40 = getelementptr inbounds %struct.Abc_ManTime_t_, ptr %39, i32 0, i32 2
  %41 = load ptr, ptr %40, align 8
  %42 = call i32 @Vec_PtrSize(ptr noundef %41)
  %43 = icmp sgt i32 %42, 0
  br i1 %43, label %44, label %69

44:                                               ; preds = %38
  %45 = load ptr, ptr %2, align 8
  %46 = getelementptr inbounds %struct.Abc_ManTime_t_, ptr %45, i32 0, i32 2
  %47 = load ptr, ptr %46, align 8
  %48 = getelementptr inbounds %struct.Vec_Ptr_t_, ptr %47, i32 0, i32 2
  %49 = load ptr, ptr %48, align 8
  %50 = getelementptr inbounds ptr, ptr %49, i64 0
  %51 = load ptr, ptr %50, align 8
  %52 = icmp ne ptr %51, null
  br i1 %52, label %53, label %67

53:                                               ; preds = %44
  %54 = load ptr, ptr %2, align 8
  %55 = getelementptr inbounds %struct.Abc_ManTime_t_, ptr %54, i32 0, i32 2
  %56 = load ptr, ptr %55, align 8
  %57 = getelementptr inbounds %struct.Vec_Ptr_t_, ptr %56, i32 0, i32 2
  %58 = load ptr, ptr %57, align 8
  %59 = getelementptr inbounds ptr, ptr %58, i64 0
  %60 = load ptr, ptr %59, align 8
  call void @free(ptr noundef %60) #13
  %61 = load ptr, ptr %2, align 8
  %62 = getelementptr inbounds %struct.Abc_ManTime_t_, ptr %61, i32 0, i32 2
  %63 = load ptr, ptr %62, align 8
  %64 = getelementptr inbounds %struct.Vec_Ptr_t_, ptr %63, i32 0, i32 2
  %65 = load ptr, ptr %64, align 8
  %66 = getelementptr inbounds ptr, ptr %65, i64 0
  store ptr null, ptr %66, align 8
  br label %68

67:                                               ; preds = %44
  br label %68

68:                                               ; preds = %67, %53
  br label %69

69:                                               ; preds = %68, %38
  %70 = load ptr, ptr %2, align 8
  %71 = getelementptr inbounds %struct.Abc_ManTime_t_, ptr %70, i32 0, i32 2
  %72 = load ptr, ptr %71, align 8
  call void @Vec_PtrFree(ptr noundef %72)
  %73 = load ptr, ptr %2, align 8
  %74 = getelementptr inbounds %struct.Abc_ManTime_t_, ptr %73, i32 0, i32 3
  %75 = load ptr, ptr %74, align 8
  %76 = call i32 @Vec_PtrSize(ptr noundef %75)
  %77 = icmp sgt i32 %76, 0
  br i1 %77, label %78, label %103

78:                                               ; preds = %69
  %79 = load ptr, ptr %2, align 8
  %80 = getelementptr inbounds %struct.Abc_ManTime_t_, ptr %79, i32 0, i32 3
  %81 = load ptr, ptr %80, align 8
  %82 = getelementptr inbounds %struct.Vec_Ptr_t_, ptr %81, i32 0, i32 2
  %83 = load ptr, ptr %82, align 8
  %84 = getelementptr inbounds ptr, ptr %83, i64 0
  %85 = load ptr, ptr %84, align 8
  %86 = icmp ne ptr %85, null
  br i1 %86, label %87, label %101

87:                                               ; preds = %78
  %88 = load ptr, ptr %2, align 8
  %89 = getelementptr inbounds %struct.Abc_ManTime_t_, ptr %88, i32 0, i32 3
  %90 = load ptr, ptr %89, align 8
  %91 = getelementptr inbounds %struct.Vec_Ptr_t_, ptr %90, i32 0, i32 2
  %92 = load ptr, ptr %91, align 8
  %93 = getelementptr inbounds ptr, ptr %92, i64 0
  %94 = load ptr, ptr %93, align 8
  call void @free(ptr noundef %94) #13
  %95 = load ptr, ptr %2, align 8
  %96 = getelementptr inbounds %struct.Abc_ManTime_t_, ptr %95, i32 0, i32 3
  %97 = load ptr, ptr %96, align 8
  %98 = getelementptr inbounds %struct.Vec_Ptr_t_, ptr %97, i32 0, i32 2
  %99 = load ptr, ptr %98, align 8
  %100 = getelementptr inbounds ptr, ptr %99, i64 0
  store ptr null, ptr %100, align 8
  br label %102

101:                                              ; preds = %78
  br label %102

102:                                              ; preds = %101, %87
  br label %103

103:                                              ; preds = %102, %69
  %104 = load ptr, ptr %2, align 8
  %105 = getelementptr inbounds %struct.Abc_ManTime_t_, ptr %104, i32 0, i32 3
  %106 = load ptr, ptr %105, align 8
  call void @Vec_PtrFree(ptr noundef %106)
  %107 = load ptr, ptr %2, align 8
  %108 = icmp ne ptr %107, null
  br i1 %108, label %109, label %111

109:                                              ; preds = %103
  %110 = load ptr, ptr %2, align 8
  call void @free(ptr noundef %110) #13
  store ptr null, ptr %2, align 8
  br label %112

111:                                              ; preds = %103
  br label %112

112:                                              ; preds = %111, %109
  ret void
}