; Function Attrs: mustprogress nounwind willreturn uwtable
define void @Abc_ManTimeStop(ptr noundef captures(none) %0) local_unnamed_addr #7 {
  %2 = getelementptr inbounds nuw i8, ptr %0, i64 48
  %3 = load ptr, ptr %2, align 8
  %.not = icmp eq ptr %3, null
  br i1 %.not, label %5, label %4

4:                                                ; preds = %1
  tail call void @free(ptr noundef nonnull %3) #22
  store ptr null, ptr %2, align 8
  br label %5

5:                                                ; preds = %4, %1
  %6 = getelementptr inbounds nuw i8, ptr %0, i64 56
  %7 = load ptr, ptr %6, align 8
  %.not24 = icmp eq ptr %7, null
  br i1 %.not24, label %9, label %8

8:                                                ; preds = %5
  tail call void @free(ptr noundef nonnull %7) #22
  store ptr null, ptr %6, align 8
  br label %9

9:                                                ; preds = %8, %5
  %10 = getelementptr inbounds nuw i8, ptr %0, i64 16
  %11 = load ptr, ptr %10, align 8
  %12 = getelementptr i8, ptr %11, i64 4
  %.val28 = load i32, ptr %12, align 4
  %13 = icmp sgt i32 %.val28, 0
  br i1 %13, label %14, label %22

14:                                               ; preds = %9
  %15 = getelementptr inbounds nuw i8, ptr %11, i64 8
  %16 = load ptr, ptr %15, align 8
  %17 = load ptr, ptr %16, align 8
  %.not25 = icmp eq ptr %17, null
  br i1 %.not25, label %22, label %18

18:                                               ; preds = %14
  tail call void @free(ptr noundef nonnull %17) #22
  %19 = load ptr, ptr %10, align 8
  %20 = getelementptr inbounds nuw i8, ptr %19, i64 8
  %21 = load ptr, ptr %20, align 8
  store ptr null, ptr %21, align 8
  %.pre = load ptr, ptr %10, align 8
  br label %22

22:                                               ; preds = %18, %14, %9
  %23 = phi ptr [ %.pre, %18 ], [ %11, %14 ], [ %11, %9 ]
  %24 = getelementptr inbounds nuw i8, ptr %23, i64 8
  %25 = load ptr, ptr %24, align 8
  %.not.i = icmp eq ptr %25, null
  br i1 %.not.i, label %Vec_PtrFree.exit, label %26

26:                                               ; preds = %22
  tail call void @free(ptr noundef nonnull %25) #22
  br label %Vec_PtrFree.exit

Vec_PtrFree.exit:                                 ; preds = %22, %26
  tail call void @free(ptr noundef nonnull %23) #22
  %27 = getelementptr inbounds nuw i8, ptr %0, i64 24
  %28 = load ptr, ptr %27, align 8
  %29 = getelementptr i8, ptr %28, i64 4
  %.val = load i32, ptr %29, align 4
  %30 = icmp sgt i32 %.val, 0
  br i1 %30, label %31, label %39

31:                                               ; preds = %Vec_PtrFree.exit
  %32 = getelementptr inbounds nuw i8, ptr %28, i64 8
  %33 = load ptr, ptr %32, align 8
  %34 = load ptr, ptr %33, align 8
  %.not26 = icmp eq ptr %34, null
  br i1 %.not26, label %39, label %35

35:                                               ; preds = %31
  tail call void @free(ptr noundef nonnull %34) #22
  %36 = load ptr, ptr %27, align 8
  %37 = getelementptr inbounds nuw i8, ptr %36, i64 8
  %38 = load ptr, ptr %37, align 8
  store ptr null, ptr %38, align 8
  %.pre31 = load ptr, ptr %27, align 8
  br label %39

39:                                               ; preds = %35, %31, %Vec_PtrFree.exit
  %40 = phi ptr [ %.pre31, %35 ], [ %28, %31 ], [ %28, %Vec_PtrFree.exit ]
  %41 = getelementptr inbounds nuw i8, ptr %40, i64 8
  %42 = load ptr, ptr %41, align 8
  %.not.i29 = icmp eq ptr %42, null
  br i1 %.not.i29, label %44, label %43

43:                                               ; preds = %39
  tail call void @free(ptr noundef nonnull %42) #22
  br label %44

44:                                               ; preds = %39, %43
  tail call void @free(ptr noundef nonnull %40) #22
  tail call void @free(ptr noundef nonnull %0) #22
  ret void
}